; Function Attrs: nounwind uwtable
define internal fastcc noalias nonnull ptr @_init_l_Lean_Elab_Term_Quotation_mkPrecheckAttribute___closed__10() unnamed_addr #0 {
  %1 = load ptr, ptr @l_Lean_Elab_Term_Quotation_mkPrecheckAttribute___closed__2, align 8, !tbaa !9
  %2 = load ptr, ptr @l_Lean_Elab_Term_Quotation_mkPrecheckAttribute___closed__4, align 8, !tbaa !9
  %3 = load ptr, ptr @l_Lean_Elab_Term_Quotation_mkPrecheckAttribute___closed__7, align 8, !tbaa !9
  %4 = load ptr, ptr @l_Lean_Elab_Term_Quotation_mkPrecheckAttribute___closed__6, align 8, !tbaa !9
  %5 = load ptr, ptr @l_Lean_Elab_Term_Quotation_mkPrecheckAttribute___closed__8, align 8, !tbaa !9
  %6 = load ptr, ptr @l_Lean_Elab_Term_Quotation_mkPrecheckAttribute___closed__9, align 8, !tbaa !9
  tail call void @lean_inc_heartbeat() #4
  %7 = tail call noalias ptr @mi_malloc_small(i64 noundef 56) #4
  %8 = icmp eq ptr %7, null
  br i1 %8, label %9, label %lean_alloc_ctor.exit

9:                                                ; preds = %0
  tail call void @lean_internal_panic_out_of_memory() #5
  unreachable

lean_alloc_ctor.exit:                             ; preds = %0
  %10 = getelementptr inbounds nuw i8, ptr %7, i64 4
  store i32 1, ptr %7, align 4, !tbaa !4
  store i32 393272, ptr %10, align 4
  %11 = getelementptr inbounds nuw i8, ptr %7, i64 8
  store ptr %1, ptr %11, align 8, !tbaa !9
  %12 = getelementptr inbounds nuw i8, ptr %7, i64 16
  store ptr %2, ptr %12, align 8, !tbaa !9
  %13 = getelementptr inbounds nuw i8, ptr %7, i64 24
  store ptr %3, ptr %13, align 8, !tbaa !9
  %14 = getelementptr inbounds nuw i8, ptr %7, i64 32
  store ptr %4, ptr %14, align 8, !tbaa !9
  %15 = getelementptr inbounds nuw i8, ptr %7, i64 40
  store ptr %5, ptr %15, align 8, !tbaa !9
  %16 = getelementptr inbounds nuw i8, ptr %7, i64 48
  store ptr %6, ptr %16, align 8, !tbaa !9
  ret ptr %7
}